target datalayout = "e-m:e-p270:32:32-p271:32:32-p272:64:64-i64:64-i128:128-f80:128-n8:16:32:64-S128"
target triple = "x86_64-pc-linux-gnu"

%"class.llvm::FoldingSetBase::Node" = type { ptr }
%"class.llvm::ImmutableList" = type { ptr }
%"class.llvm::ImmutableListImpl" = type { %"class.llvm::FoldingSetBase::Node", ptr, ptr }

; Function Attrs: mustprogress nounwind uwtable
define linkonce_odr hidden noundef nonnull align 8 dereferenceable(16) ptr @_ZNK4llvm17ImmutableListImplIRKN5clang4ento9FieldNodeEE7getHeadEv(ptr noundef nonnull align 8 dereferenceable(24) %0) #0 comdat align 2 {
  %2 = alloca ptr, align 8
  store ptr %0, ptr %2, align 8
  %3 = load ptr, ptr %2, align 8
  %4 = getelementptr inbounds nuw %"class.llvm::ImmutableListImpl", ptr %3, i32 0, i32 1
  %5 = load ptr, ptr %4, align 8
  ret ptr %5
}

; Function Attrs: mustprogress nounwind uwtable
define linkonce_odr hidden void @_ZN4llvm13ImmutableListIRKN5clang4ento9FieldNodeEEC2EPKNS_17ImmutableListImplIS5_EE(ptr noundef nonnull align 8 dereferenceable(8) %0, ptr noundef %1) unnamed_addr #0 comdat align 2 {
  %3 = alloca ptr, align 8
  %4 = alloca ptr, align 8
  store ptr %0, ptr %3, align 8
  store ptr %1, ptr %4, align 8
  %5 = load ptr, ptr %3, align 8
  %6 = getelementptr inbounds nuw %"class.llvm::ImmutableList", ptr %5, i32 0, i32 0
  %7 = load ptr, ptr %4, align 8
  store ptr %7, ptr %6, align 8
  ret void
}

; Function Attrs: mustprogress nounwind uwtable
define linkonce_odr hidden noundef ptr @_ZNK4llvm17ImmutableListImplIRKN5clang4ento9FieldNodeEE7getTailEv(ptr noundef nonnull align 8 dereferenceable(24) %0) #0 comdat align 2 {
  %2 = alloca ptr, align 8
  store ptr %0, ptr %2, align 8
  %3 = load ptr, ptr %2, align 8
  %4 = getelementptr inbounds nuw %"class.llvm::ImmutableListImpl", ptr %3, i32 0, i32 2
  %5 = load ptr, ptr %4, align 8
  ret ptr %5
}

; Function Attrs: mustprogress nounwind uwtable
define linkonce_odr hidden noundef nonnull align 8 dereferenceable(16) ptr @_ZNK4llvm13ImmutableListIRKN5clang4ento9FieldNodeEE7getHeadEv(ptr noundef nonnull align 8 dereferenceable(8) %0) #0 comdat align 2 {
  %2 = alloca ptr, align 8
  store ptr %0, ptr %2, align 8
  %3 = load ptr, ptr %2, align 8
  %4 = getelementptr inbounds nuw %"class.llvm::ImmutableList", ptr %3, i32 0, i32 0
  %5 = load ptr, ptr %4, align 8
  %6 = call noundef nonnull align 8 dereferenceable(16) ptr @_ZNK4llvm17ImmutableListImplIRKN5clang4ento9FieldNodeEE7getHeadEv(ptr noundef nonnull align 8 dereferenceable(24) %5)
  ret ptr %6
}

; Function Attrs: mustprogress nounwind uwtable
define linkonce_odr hidden ptr @_ZNK4llvm13ImmutableListIRKN5clang4ento9FieldNodeEE7getTailEv(ptr noundef nonnull align 8 dereferenceable(8) %0) #0 comdat align 2 {
  %2 = alloca %"class.llvm::ImmutableList", align 8
  %3 = alloca ptr, align 8
  store ptr %0, ptr %3, align 8
  %4 = load ptr, ptr %3, align 8
  %5 = getelementptr inbounds nuw %"class.llvm::ImmutableList", ptr %4, i32 0, i32 0
  %6 = load ptr, ptr %5, align 8
  %7 = icmp ne ptr %6, null
  br i1 %7, label %8, label %12

8:                                                ; preds = %1
  %9 = getelementptr inbounds nuw %"class.llvm::ImmutableList", ptr %4, i32 0, i32 0
  %10 = load ptr, ptr %9, align 8
  %11 = call noundef ptr @_ZNK4llvm17ImmutableListImplIRKN5clang4ento9FieldNodeEE7getTailEv(ptr noundef nonnull align 8 dereferenceable(24) %10)
  br label %13

12:                                               ; preds = %1
  br label %13

13:                                               ; preds = %12, %8
  %14 = phi ptr [ %11, %8 ], [ null, %12 ]
  call void @_ZN4llvm13ImmutableListIRKN5clang4ento9FieldNodeEEC2EPKNS_17ImmutableListImplIS5_EE(ptr noundef nonnull align 8 dereferenceable(8) %2, ptr noundef %14)
  %15 = getelementptr inbounds nuw %"class.llvm::ImmutableList", ptr %2, i32 0, i32 0
  %16 = load ptr, ptr %15, align 8
  ret ptr %16
}

; Function Attrs: mustprogress nounwind uwtable
define linkonce_odr hidden noundef zeroext i1 @_ZNK4llvm13ImmutableListIRKN5clang4ento9FieldNodeEE7isEmptyEv(ptr noundef nonnull align 8 dereferenceable(8) %0) #0 comdat align 2 {
  %2 = alloca ptr, align 8
  store ptr %0, ptr %2, align 8
  %3 = load ptr, ptr %2, align 8
  %4 = getelementptr inbounds nuw %"class.llvm::ImmutableList", ptr %3, i32 0, i32 0
  %5 = load ptr, ptr %4, align 8
  %6 = icmp ne ptr %5, null
  %7 = xor i1 %6, true
  ret i1 %7
}

; Function Attrs: mustprogress nounwind uwtable
define internal void @_ZL9printTailRN4llvm11raw_ostreamENS_13ImmutableListIRKN5clang4ento9FieldNodeEEE(ptr noundef nonnull align 8 dereferenceable(48) %0, ptr %1) #0 {
  %3 = alloca %"class.llvm::ImmutableList", align 8
  %4 = alloca ptr, align 8
  %5 = alloca %"class.llvm::ImmutableList", align 8
  %6 = getelementptr inbounds nuw %"class.llvm::ImmutableList", ptr %3, i32 0, i32 0
  store ptr %1, ptr %6, align 8
  store ptr %0, ptr %4, align 8
  %7 = call noundef zeroext i1 @_ZNK4llvm13ImmutableListIRKN5clang4ento9FieldNodeEE7isEmptyEv(ptr noundef nonnull align 8 dereferenceable(8) %3)
  br i1 %7, label %8, label %9

8:                                                ; preds = %2
  br label %25

9:                                                ; preds = %2
  %10 = load ptr, ptr %4, align 8
  %11 = call ptr @_ZNK4llvm13ImmutableListIRKN5clang4ento9FieldNodeEE7getTailEv(ptr noundef nonnull align 8 dereferenceable(8) %3)
  %12 = getelementptr inbounds nuw %"class.llvm::ImmutableList", ptr %5, i32 0, i32 0
  store ptr %11, ptr %12, align 8
  %13 = getelementptr inbounds nuw %"class.llvm::ImmutableList", ptr %5, i32 0, i32 0
  %14 = load ptr, ptr %13, align 8
  call void @_ZL9printTailRN4llvm11raw_ostreamENS_13ImmutableListIRKN5clang4ento9FieldNodeEEE(ptr noundef nonnull align 8 dereferenceable(48) %10, ptr %14)
  %15 = call noundef nonnull align 8 dereferenceable(16) ptr @_ZNK4llvm13ImmutableListIRKN5clang4ento9FieldNodeEE7getHeadEv(ptr noundef nonnull align 8 dereferenceable(8) %3)
  %16 = load ptr, ptr %4, align 8
  %17 = load ptr, ptr %15, align 8
  %18 = getelementptr inbounds ptr, ptr %17, i64 2
  %19 = load ptr, ptr %18, align 8
  call void %19(ptr noundef nonnull align 8 dereferenceable(16) %15, ptr noundef nonnull align 8 dereferenceable(48) %16)
  %20 = call noundef nonnull align 8 dereferenceable(16) ptr @_ZNK4llvm13ImmutableListIRKN5clang4ento9FieldNodeEE7getHeadEv(ptr noundef nonnull align 8 dereferenceable(8) %3)
  %21 = load ptr, ptr %4, align 8
  %22 = load ptr, ptr %20, align 8
  %23 = getelementptr inbounds ptr, ptr %22, i64 3
  %24 = load ptr, ptr %23, align 8
  call void %24(ptr noundef nonnull align 8 dereferenceable(16) %20, ptr noundef nonnull align 8 dereferenceable(48) %21)
  br label %25

25:                                               ; preds = %9, %8
  ret void
}