; Function Attrs: mustprogress nounwind uwtable
define internal fastcc void @_ZL9printTailRN4llvm11raw_ostreamENS_13ImmutableListIRKN5clang4ento9FieldNodeEEE(ptr noundef nonnull align 8 dereferenceable(48) %0, ptr readonly %1) unnamed_addr #2 {
  %.not.i = icmp eq ptr %1, null
  br i1 %.not.i, label %common.ret7, label %_ZNK4llvm13ImmutableListIRKN5clang4ento9FieldNodeEE7getTailEv.exit

common.ret7:                                      ; preds = %2, %_ZNK4llvm13ImmutableListIRKN5clang4ento9FieldNodeEE7getTailEv.exit
  ret void

_ZNK4llvm13ImmutableListIRKN5clang4ento9FieldNodeEE7getTailEv.exit: ; preds = %2
  %3 = getelementptr inbounds nuw i8, ptr %1, i64 16
  %4 = load ptr, ptr %3, align 8
  tail call fastcc void @_ZL9printTailRN4llvm11raw_ostreamENS_13ImmutableListIRKN5clang4ento9FieldNodeEEE(ptr noundef nonnull align 8 dereferenceable(48) %0, ptr %4)
  %5 = getelementptr inbounds nuw i8, ptr %1, i64 8
  %6 = load ptr, ptr %5, align 8
  %7 = load ptr, ptr %6, align 8
  %8 = getelementptr inbounds nuw i8, ptr %7, i64 16
  %9 = load ptr, ptr %8, align 8
  tail call void %9(ptr noundef nonnull align 8 dereferenceable(16) %6, ptr noundef nonnull align 8 dereferenceable(48) %0) #20
  %10 = load ptr, ptr %5, align 8
  %11 = load ptr, ptr %10, align 8
  %12 = getelementptr inbounds nuw i8, ptr %11, i64 24
  %13 = load ptr, ptr %12, align 8
  tail call void %13(ptr noundef nonnull align 8 dereferenceable(16) %10, ptr noundef nonnull align 8 dereferenceable(48) %0) #20
  br label %common.ret7
}